(dp1
S'output'
p2
S"<type 'exceptions.AttributeError'> 'Rows' object has no attribute 'classes'"
p3
sS'layer'
p4
S'/home/julia/web2py/applications/courses_app/controllers/default.py'
p5
sS'code'
p6
S'# -*- coding: utf-8 -*-\n# this file is released under public domain and you can use without limitations\n\n#########################################################################\n## This is a sample controller\n## - index is the default action of any application\n## - user is required for authentication and authorization\n## - download is for downloading files uploaded in the db (does streaming)\n#########################################################################\n\ndef index():\n    """\n    example action using the internationalization operator T and flash\n    rendered by views/default/index.html or views/generic.html\n\n    if you need a simple wiki simply replace the two lines below with:\n    return auth.wiki()\n    """\n    response.flash = T("Hello World")\n    return dict(message=T(\'Welcome to web2py!\'))\n\n\ndef user():\n    """\n    exposes:\n    http://..../[app]/default/user/login\n    http://..../[app]/default/user/logout\n    http://..../[app]/default/user/register\n    http://..../[app]/default/user/profile\n    http://..../[app]/default/user/retrieve_password\n    http://..../[app]/default/user/change_password\n    http://..../[app]/default/user/manage_users (requires membership in\n    use @auth.requires_login()\n        @auth.requires_membership(\'group name\')\n        @auth.requires_permission(\'read\',\'table name\',record_id)\n    to decorate functions that need access control\n    """\n    return dict(form=auth())\n\n\n@cache.action()\ndef download():\n    """\n    allows downloading of uploaded files\n    http://..../[app]/default/download/[filename]\n    """\n    return response.download(request, db)\n\n\ndef call():\n    """\n    exposes services. for example:\n    http://..../[app]/default/call/jsonrpc\n    decorate with @services.jsonrpc the functions to expose\n    supports xml, json, xmlrpc, jsonrpc, amfrpc, rss, csv\n    """\n    return service()\n\n##################################################################################\n####                                                                          ####\n####                               COURSE PAGES                               ####\n####                                                                          ####\n##################################################################################\n\ndef courses():\n    courses = db(Course).select()\n    return dict(courses=courses)\n\ndef course():\n    course_id = int(request.args(0))\n    course = db(Course.id == course_id).select().first()\n    open_classes = course.classes(Class.status == 3).select()\n    \n    Interest.course.default = course_id\n    Interest.course.readable = Interest.course.writable = False\n    interest_form = SQLFORM(Interest)\n    if interest_form.process(onvalidation=check_if_exists).accepted:\n        response.flash = T("Thank you!")\n    elif interest_form.errors:\n        response.flash = T("Erros no formul\xc3\xa1rio!")\n        \n    return dict(\n        course=course,\n        open_classes=open_classes,\n        interest_form=interest_form)\n\n@auth.requires_login()\ndef enroll():\n    class_id = int(request.args(0))\n    if not class_id:\n        session.flash = T("No class selected!")\n        redirect(URL(\'courses\'))\n        \n    Student.insert(student=auth.user.id, class_id=class_id, status=1)\n    session.flash = T("Congrats! You\'re enrolled on a new course!") \n    redirect(URL(\'my_courses\'))\n\n@auth.requires_login()\ndef my_courses():\n    classes = db(Student.student == auth.user.id).select().classes.select()\n    return dict(classes=classes)\n\ndef classes():\n    if request.vars.course:\n        classes = db(Class.course == request.vars.course).select(Class.course, Class.status)\n    else:\n        classes = db(Class).select(Class.course, Class.status)\n    return dict(classes=classes)\n\ndef new_course():\n    form = SQLFORM(Course)\n    if form.process().accepted:\n        session.flash = "New course!"\n        redirect(URL(\'courses\'))\n    elif form.errors:\n        response.flash = "Errors in form!"\n    return dict(form=form)\n\ndef new_class():\n    form = SQLFORM(Class)\n    if form.process().accepted:\n        session.flash = "New class!"\n        redirect(URL(\'classes\', vars={\'course\':form.vars.course}))\n    elif form.errors:\n        response.flash = "Errors in form!"\n    return dict(form=form)\n\nresponse._vars=response._caller(my_courses)\n'
p7
sS'snapshot'
p8
(dp9
sS'traceback'
p10
S'Traceback (most recent call last):\n  File "/home/julia/web2py/gluon/restricted.py", line 227, in restricted\n    exec ccode in environment\n  File "/home/julia/web2py/applications/courses_app/controllers/default.py", line 128, in <module>\n  File "/home/julia/web2py/gluon/globals.py", line 393, in <lambda>\n    self._caller = lambda f: f()\n  File "/home/julia/web2py/gluon/tools.py", line 3440, in f\n    return action(*a, **b)\n  File "/home/julia/web2py/applications/courses_app/controllers/default.py", line 100, in my_courses\n    classes = db(Student.student == auth.user.id).select().classes.select()\nAttributeError: \'Rows\' object has no attribute \'classes\'\n'
p11
s.