(dp1
S'output'
p2
S"<type 'exceptions.AttributeError'> 'NoneType' object has no attribute 'id'"
p3
sS'layer'
p4
S'/home/julia/web2py/applications/courses_app/controllers/course.py'
p5
sS'code'
p6
S'# -*- coding: utf-8 -*-\n\ndef my_courses():\n    courses = db(db.students.student == request.user.id).select()\n    return dict(courses=courses)\n\ndef new_course():\n    form = SQLFORM(Course)\n    if form.process().accepted:\n        session.flash = "New course!"\n        redirect(URL(\'my_courses\'))\n    elif form.errors:\n        response.flash = "Errors in form!"\n    return dict(form=form)\n\nresponse._vars=response._caller(my_courses)\n'
p7
sS'snapshot'
p8
(dp9
sS'traceback'
p10
S'Traceback (most recent call last):\n  File "/home/julia/web2py/gluon/restricted.py", line 227, in restricted\n    exec ccode in environment\n  File "/home/julia/web2py/applications/courses_app/controllers/course.py", line 16, in <module>\n  File "/home/julia/web2py/gluon/globals.py", line 393, in <lambda>\n    self._caller = lambda f: f()\n  File "/home/julia/web2py/applications/courses_app/controllers/course.py", line 4, in my_courses\n    courses = db(db.students.student == request.user.id).select()\nAttributeError: \'NoneType\' object has no attribute \'id\'\n'
p11
s.