(dp1
S'output'
p2
S"<type 'exceptions.AttributeError'> 'Row' object has no attribute 'course_id'"
p3
sS'layer'
p4
S'/home/julia/web2py/applications/courses_app/views/default/my_courses.html'
p5
sS'code'
p6
S'response.write(\'<!DOCTYPE html>\\n<html lang="en">\\n  <head>\\n    <meta charset="utf-8">\\n    <meta name="viewport" content="width=device-width, initial-scale=1.0">\\n\\n    <title>\', escape=False)\nresponse.write(T(\'User Area - Courses\'))\nresponse.write(\'</title>\\n\\n    <!-- Bootstrap core CSS -->\\n    <link href="\', escape=False)\nresponse.write(URL(\'static\', \'css/bootstrap.min.css\'))\nresponse.write(\'" rel="stylesheet">\\n    <!--external css-->\\n    <link href="\', escape=False)\nresponse.write(URL(\'static\', \'css/font-awesome.css\'))\nresponse.write(\'" rel="stylesheet" />\\n    <link rel="stylesheet" type="text/css" href="\', escape=False)\nresponse.write(URL(\'static\', \'css/zabuto_calendar.css\'))\nresponse.write(\'">\\n    <link rel="stylesheet" type="text/css" href="\', escape=False)\nresponse.write(URL(\'static\', \'js/gritter/css/jquery.gritter.css\'))\nresponse.write(\'" />\\n    <link rel="stylesheet" type="text/css" href="\', escape=False)\nresponse.write(URL(\'static\', \'lineicons/style.css\'))\nresponse.write(\'">\\n    \\n    <!-- Custom styles for this template -->\\n    <link href="\', escape=False)\nresponse.write(URL(\'static\', \'css/style.css\'))\nresponse.write(\'" rel="stylesheet">\\n    <link href="\', escape=False)\nresponse.write(URL(\'static\', \'css/style-responsive.css\'))\nresponse.write(\'" rel="stylesheet">\\n      \\n    \', escape=False)\nresponse.write(\'\\n    \', escape=False)\nresponse.write(\'\\n\\n    <script src="\', escape=False)\nresponse.write(URL(\'static\', \'js/chart-master/Chart.js\'))\nresponse.write(\'"></script>\\n    \\n    <!-- HTML5 shim and Respond.js IE8 support of HTML5 elements and media queries -->\\n    <!--[if lt IE 9]>\\n      <script src="https://oss.maxcdn.com/libs/html5shiv/3.7.0/html5shiv.js"></script>\\n      <script src="https://oss.maxcdn.com/libs/respond.js/1.4.2/respond.min.js"></script>\\n    <![endif]-->\\n  </head>\\n\\n  <body>\\n\\n  <section id="container" >\\n      <!--header start-->\\n      <header class="header black-bg">\\n            <!--logo start-->\\n            <a href="" class="logo"><b>\', escape=False)\nresponse.write(T(\'DASHBOARD\'))\nresponse.write(\'</b></a>\\n            <!--logo end-->\\n            <div class="top-menu">\\n            \\t<ul class="nav pull-right top-menu">\\n                    <li><a class="logout" href="login.html">\', escape=False)\nresponse.write(T(\'Logout\'))\nresponse.write(\'</a></li>\\n            \\t</ul>\\n            </div>\\n        </header>\\n      <!--header end-->\\n      \\n      <!-- **********************************************************************************************************************************************************\\n      MAIN SIDEBAR MENU\\n      *********************************************************************************************************************************************************** -->\\n      <!--sidebar start-->\\n      <aside>\\n          <div id="sidebar"  class="nav-collapse ">\\n              <!-- sidebar menu start-->\\n              <ul class="sidebar-menu" id="nav-accordion">\\n              \\n              \\t  <p class="centered"><a href="\', escape=False)\nresponse.write(URL(\'user\', args=\'profile\'))\nresponse.write(\'"><img src="\', escape=False)\nresponse.write(URL(\'download\', args=auth.user.avatar))\nresponse.write(\'" class="img-circle" width="60" alt="Avatar"></a></p>\\n              \\t  <h5 class="centered">\', escape=False)\nresponse.write(auth.user.first_name)\nresponse.write(\' \', escape=False)\nresponse.write(auth.user.last_name)\nresponse.write(\'</h5>\\n              \\t  \\t\\n                  <li class="mt">\\n                      <a class="active" href="">\\n                          <i class="fa fa-dashboard"></i>\\n                          <span>\', escape=False)\nresponse.write(T(\'Dashboard\'))\nresponse.write(\'</span>\\n                      </a>\\n                  </li>\\n\\n                  <li class="sub-menu">\\n                      <a href="" >\\n                          <i class="fa fa-desktop"></i>\\n                          <span>\', escape=False)\nresponse.write(T(\'My Courses\'))\nresponse.write(\'</span>\\n                      </a>\\n                  </li>\\n\\n                  <li class="sub-menu">\\n                      <a href="" >\\n                          <i class="fa fa-book"></i>\\n                          <span>\', escape=False)\nresponse.write(T(\'My Certificates\'))\nresponse.write(\'</span>\\n                      </a>\\n                  </li>\\n                  <li class="sub-menu">\\n                      <a href="" >\\n                          <i class="fa fa-cogs"></i>\\n                          <span>\', escape=False)\nresponse.write(T(\'Settings\'))\nresponse.write(\'</span>\\n                      </a>\\n                  </li>\\n              </ul>\\n              <!-- sidebar menu end-->\\n          </div>\\n      </aside>\\n      <!--sidebar end-->\\n      \\n      <!-- **********************************************************************************************************************************************************\\n      MAIN CONTENT\\n      *********************************************************************************************************************************************************** -->\\n      <!--main content start-->\\n      <section id="main-content">\\n          <section class="wrapper site-min-height">\\n          \\t\', escape=False)\nresponse.write(\'\\n\', escape=False)\nfor my_class in classes:\n    response.write(\'\\n<div class="col-lg-4 col-md-4 col-sm-4 mb">\\n    <div class="content-panel pn">\\n        <div>\\n            <h3>\', escape=False)\n    response.write(my_class.course_id.title)\n    response.write(\'</h3>\\n            <h6>\', escape=False)\n    response.write(my_class.students.select().first().status)\n    response.write(\'</h6>\\n\\t\\t\\t\\t\\t\\t\\t\\t</div>\\n\\t\\t\\t\\t\\t\\t\\t\\t<div class="profile-01 centered">\\n\\t\\t\\t\\t\\t\\t\\t\\t\\t<p>ADD TO CONTACT LIST</p>\\n\\t\\t\\t\\t\\t\\t\\t\\t</div>\\n\\t\\t\\t\\t\\t\\t\\t\\t<div class="centered">\\n\\t\\t\\t\\t\\t\\t\\t\\t\\t<h6><i class="fa fa-envelope"></i><br/>SHARON@DASHGUMTHEME.COM</h6>\\n\\t\\t\\t\\t\\t\\t\\t\\t</div>\\n\\t\\t\\t\\t\\t\\t\\t</div><! --/content-panel -->\\n\\t\\t\\t\\t\\t\\t</div><! --/col-md-4 -->\\n\', escape=False)\n    pass\nresponse.write(\'\\n\', escape=False)\nresponse.write(\'\\n\\t\\t</section><! --/wrapper -->\\n      </section><!-- /MAIN CONTENT -->\\n\\n      <!--main content end-->\\n      <!--footer start-->\\n      <footer class="site-footer">\\n          <div class="text-center">\\n              2014 - J\\xc3\\xbalia Rizza - Template by Alvarez.is\\n              <a href="blank.html#" class="go-top">\\n                  <i class="fa fa-angle-up"></i>\\n              </a>\\n          </div>\\n      </footer>\\n      <!--footer end-->\\n  </section>\\n\\n    <!-- js placed at the end of the document so the pages load faster -->\\n    \', escape=False)\nresponse.write(\'\\n    \', escape=False)\nresponse.write(\'\\n    <script src="\', escape=False)\nresponse.write(URL(\'static\', \'js/jquery.js\'))\nresponse.write(\'"></script>\\n    <script src="\', escape=False)\nresponse.write(URL(\'static\', \'js/jquery-1.8.3.min.js\'))\nresponse.write(\'"></script>\\n    <script src="\', escape=False)\nresponse.write(URL(\'static\', \'js/bootstrap.min.js\'))\nresponse.write(\'"></script>\\n    <script class="include" type="text/javascript" src="\', escape=False)\nresponse.write(URL(\'static\', \'js/jquery.dcjqaccordion.2.7.js\'))\nresponse.write(\'"></script>\\n    <script src="\', escape=False)\nresponse.write(URL(\'static\', \'js/jquery.scrollTo.min.js\'))\nresponse.write(\'"></script>\\n    <script src="\', escape=False)\nresponse.write(URL(\'static\', \'js/jquery.nicescroll.js\'))\nresponse.write(\'" type="text/javascript"></script>\\n    <script src="\', escape=False)\nresponse.write(URL(\'static\', \'js/jquery.sparkline.js\'))\nresponse.write(\'"></script>\\n\\n\\n    <!--common script for all pages-->\\n    <script src="\', escape=False)\nresponse.write(URL(\'static\', \'js/common-scripts.js\'))\nresponse.write(\'"></script>\\n    \\n    <script type="text/javascript" src="\', escape=False)\nresponse.write(URL(\'static\', \'js/gritter/js/jquery.gritter.js\'))\nresponse.write(\'"></script>\\n    <script type="text/javascript" src="\', escape=False)\nresponse.write(URL(\'static\', \'js/gritter-conf.js\'))\nresponse.write(\'"></script>\\n\\n    <!--script for this page-->\\n    <script src="\', escape=False)\nresponse.write(URL(\'static\', \'js/sparkline-chart.js\'))\nresponse.write(\'"></script>    \\n\\t<script src="\', escape=False)\nresponse.write(URL(\'static\', \'js/zabuto_calendar.js\'))\nresponse.write(\'"></script>\\t\\n      \\n  </body>\\n</html>\\n\', escape=False)'
p7
sS'snapshot'
p8
(dp9
sS'traceback'
p10
S'Traceback (most recent call last):\n  File "/home/julia/web2py/gluon/restricted.py", line 227, in restricted\n    exec ccode in environment\n  File "/home/julia/web2py/applications/courses_app/views/default/my_courses.html", line 45, in <module>\n  File "/home/julia/web2py/gluon/packages/dal/pydal/objects.py", line 82, in __getitem__\n    raise ae\nAttributeError: \'Row\' object has no attribute \'course_id\'\n'
p11
s.