(dp1
S'output'
p2
S"<type 'exceptions.IndexError'> list index out of range"
p3
sS'layer'
p4
S'/home/julia/web2py/applications/courses_app/views/default/courses.html'
p5
sS'code'
p6
S'response.write(\'<!DOCTYPE HTML>\\n<!--\\n\\tTelephasic by HTML5 UP\\n\\thtml5up.net | @n33co\\n\\tFree for personal and commercial use under the CCA 3.0 license (html5up.net/license)\\n-->\\n<html>\\n\\t<head>\\n\\t\\t<title>Julia Rizza</title>\\n\\t\\t<meta charset="utf-8" />\\n\\t\\t<meta name="viewport" content="width=device-width, initial-scale=1" />\\n\\t\\t<!--[if lte IE 8]><script src="\', escape=False)\nresponse.write(URL(\'static\', \'css/ie/html5shiv.js\'))\nresponse.write(\'"></script><![endif]-->\\n\\t\\t<link rel="stylesheet" href="\', escape=False)\nresponse.write(URL(\'static\', \'css/main.css\'))\nresponse.write(\'" />\\n\\t\\t<!--[if lte IE 8]><link rel="stylesheet" href="\', escape=False)\nresponse.write(URL(\'static\', \'css/ie/v8.css\'))\nresponse.write(\'" /><![endif]-->\\n\\t\\t<!--[if lte IE 9]><link rel="stylesheet" href="\', escape=False)\nresponse.write(URL(\'static\', \'css/ie/v9.css\'))\nresponse.write(\'" /><![endif]-->\\n\\t\\t<!--[if lte IE 8]><script src="\', escape=False)\nresponse.write(URL(\'static\', \'css/ie/respond.min.js\'))\nresponse.write(\'"></script><![endif]-->\\n        \', escape=False)\nresponse.write(\'<script type="text/javascript"><!--\\n    // These variables are used by the web2py_ajax_init function in web2py_ajax.js (which is loaded below).\\n    var w2p_ajax_confirm_message = "\', escape=False)\nresponse.write(T(\'Are you sure you want to delete this object?\'))\nresponse.write(\'";\\n    var w2p_ajax_disable_with_message = "\', escape=False)\nresponse.write(T(\'Working...\'))\nresponse.write(\'";\\n    var w2p_ajax_date_format = "\', escape=False)\nresponse.write(T(\'%Y-%m-%d\'))\nresponse.write(\'";\\n    var w2p_ajax_datetime_format = "\', escape=False)\nresponse.write(T(\'%Y-%m-%d %H:%M:%S\'))\nresponse.write(\'";\\n    var ajax_error_500 = \\\'\', escape=False)\nresponse.write(T.M(\'An error occured, please [[reload %s]] the page\') % URL(args=request.args, vars=request.get_vars))\nresponse.write("\'\\n    //--></script>\\n", escape=False)\nresponse.files.insert(0,URL(\'static\',\'js/jquery.js\'))\nresponse.files.insert(1,URL(\'static\',\'css/calendar.css\'))\nresponse.files.insert(2,URL(\'static\',\'js/calendar.js\'))\nresponse.files.insert(3,URL(\'static\',\'js/web2py.js\'))\nresponse.include_meta()\nresponse.include_files()\nresponse.write(\'\\n\', escape=False)\nresponse.write(\' <!-- this includes jquery.js, calendar.js/.css and web2py.js -->\\n        \', escape=False)\nresponse.write(\'\\n\\t</head>\\n\\t<body class="\', escape=False)\nresponse.write(\'no-sidebar\', escape=False)\nresponse.write(\'">\\n\\t\\t<div id="page-wrapper">\\n        <!--[if lt IE 8]><p class="browserupgrade">You are using an <strong>outdated</strong> browser. Please <a href="http://browsehappy.com/">upgrade your browser</a> to improve your experience.</p><![endif]-->\\n        <div class="flash alert alert-dismissable">\', escape=False)\nresponse.write(response.flash or \'\')\nresponse.write(\'</div>\\n\\n\\t\\t\\t<!-- Header -->\\n\\t\\t\\t\\t<div id="header-wrapper">\\n\\t\\t\\t\\t\\t<div id="header" class="container">\\n\\n\\t\\t\\t\\t\\t\\t<!-- Logo -->\\n\\t\\t\\t\\t\\t\\t\\t<h1 id="logo"><a href="\', escape=False)\nresponse.write(URL(a=\'juliarizza\', f=\'index\'))\nresponse.write(\'">Julia Rizza</a></h1>\\n\\n\\t\\t\\t\\t\\t\\t<!-- Nav -->\\n\\t\\t\\t\\t\\t\\t\\t<nav id="nav">\\n\\t\\t\\t\\t\\t\\t\\t\\t<ul>\\n\\t\\t\\t\\t\\t\\t\\t\\t\\t<li><a href="\', escape=False)\nresponse.write(URL(\'courses\'))\nresponse.write(\'">\', escape=False)\nresponse.write(T(\'Courses\'))\nresponse.write(\'</a></li>\\n                                    <li><a href="https://juliarizza.wordpress.com" target="_blank">\', escape=False)\nresponse.write((\'Blog\'))\nresponse.write(\'</a></li>\\n\\t\\t\\t\\t\\t\\t\\t\\t\\t<li class="break"><a href="\', escape=False)\nresponse.write(URL(a=\'juliarizza\', f=\'index\'))\nresponse.write(\'#about">\', escape=False)\nresponse.write(T(\'My Work\'))\nresponse.write(\'</a></li>\\n\\t\\t\\t\\t\\t\\t\\t\\t\\t<li><a href="\', escape=False)\nresponse.write(URL(a=\'juliarizza\', f=\'index\'))\nresponse.write(\'#footer">\', escape=False)\nresponse.write(T(\'Contact\'))\nresponse.write(\'</a></li>\\n\\t\\t\\t\\t\\t\\t\\t\\t</ul>\\n\\t\\t\\t\\t\\t\\t\\t</nav>\\n\\n\\t\\t\\t\\t\\t</div>\\n                    \', escape=False)\nresponse.write(\'\\n                    \', escape=False)\nresponse.write(\'\\n            </div>\\n                    \\n                    \', escape=False)\nresponse.write(\'\\n\', escape=False)\nresponse.write(\'\\n\\n\\t\\t\\t<!-- Main -->\\n\\t\\t\\t\\t<div class="wrapper">\\n\\t\\t\\t\\t\\t<div class="container" id="main">\\n\\n\\t\\t\\t\\t\\t\\t<!-- Content -->\\n\\t\\t\\t\\t\\t\\t\\t<article id="content">\\n\\t\\t\\t\\t\\t\\t\\t\\t<header>\\n\\t\\t\\t\\t\\t\\t\\t\\t\\t<h2>\', escape=False)\nresponse.write(T(\'Courses\'))\nresponse.write(\'</h2>\\n\\t\\t\\t\\t\\t\\t\\t\\t\\t<p>\', escape=False)\nresponse.write(T(\'At the moment, this is what I have for you. Enjoy it!\'))\nresponse.write(\'</p>\\n\\t\\t\\t\\t\\t\\t\\t\\t</header>\\n\\t\\t\\t\\t\\t\\t\\t</article>\\n                        \', escape=False)\nfor x in range(len(courses)):\n    response.write(\'\\n                        \', escape=False)\n    course = courses[x]\n    response.write(\'\\n                            \', escape=False)\n    if x%2==0:\n        response.write(\'\\n                                <div class="row features">\\n                            \', escape=False)\n        pass\n    response.write(\'\\n                            \', escape=False)\n    if not courses[x+1]:\n        response.write(\'\\n                            <section class="12u 12u(narrower) feature">\\n                            \', escape=False)\n    else:\n        response.write(\'\\n\\t\\t\\t\\t\\t\\t\\t<section class="6u 12u(narrower) feature">\\n\\t\\t\\t\\t\\t\\t\\t\', escape=False)\n        pass\n    response.write(\'\\n\\t\\t\\t\\t\\t\\t\\t\\t<div class="image-wrapper first">\\n\\t\\t\\t\\t\\t\\t\\t\\t\\t<a href="\', escape=False)\n    response.write(URL(\'course\', args=course.id))\n    response.write(\'" class="image featured"><img src="\', escape=False)\n    response.write(URL(\'download\', args=course.image))\n    response.write(\'" alt="\', escape=False)\n    response.write(course.title)\n    response.write(\'" height="250" style="border: 1px solid #5D6DA4;" /></a>\\n\\t\\t\\t\\t\\t\\t\\t\\t</div>\\n\\t\\t\\t\\t\\t\\t\\t\\t<header>\\n\\t\\t\\t\\t\\t\\t\\t\\t\\t<h3>\', escape=False)\n    response.write(course.title)\n    response.write(\'</h3>\\n\\t\\t\\t\\t\\t\\t\\t\\t</header>\\n\\t\\t\\t\\t\\t\\t\\t\\t<p>\', escape=False)\n    response.write(course.short_description)\n    response.write(\'</p>\\n\\t\\t\\t\\t\\t\\t\\t\\t<ul class="actions">\\n                                    <a style="border: none;" href="\', escape=False)\n    response.write(URL(\'course\', args=course.id))\n    response.write(\'"><li class="button">\', escape=False)\n    response.write(T("See more"))\n    response.write(\'</li></a>\\n\\t\\t\\t\\t\\t\\t\\t\\t</ul>\\n\\t\\t\\t\\t\\t\\t\\t</section>\\n                            \', escape=False)\n    if x%2!=0:\n        response.write(\'\\n                                </div>\\n                            \', escape=False)\n        pass\n    response.write(\'\\n                       \', escape=False)\n    pass\nresponse.write(\'\\n\\t\\t\\t\\t\\t</div>\\n\\t\\t\\t\\t</div>\\n\', escape=False)\nresponse.write(\'\\n                    \\n            \\n                    \', escape=False)\nresponse.write(\'\\n                    <!-- Footer -->\\n                    <div id="footer-wrapper">\\n                        <center>\\n                            <ul class="menu">\\n                                <li>&copy; Untitled. All rights reserved.</li><li>Design: <a href="http://html5up.net">HTML5 UP</a></li>\\n                            </ul>\\n                        </center>\\n                    </div>\\n                    \', escape=False)\nresponse.write(\'\\n        </div>\\n\\n\\t\\t<!-- Scripts -->\\n\\n\\t\\t\\t<script src="\', escape=False)\nresponse.write(URL(\'static\', \'js/jquery.min.js\'))\nresponse.write(\'"></script>\\n\\t\\t\\t<script src="\', escape=False)\nresponse.write(URL(\'static\', \'js/jquery.dropotron.min.js\'))\nresponse.write(\'"></script>\\n\\t\\t\\t<script src="\', escape=False)\nresponse.write(URL(\'static\', \'js/skel.min.js\'))\nresponse.write(\'"></script>\\n\\t\\t\\t<script src="\', escape=False)\nresponse.write(URL(\'static\', \'js/util.js\'))\nresponse.write(\'"></script>\\n\\t\\t\\t<script src="\', escape=False)\nresponse.write(URL(\'static\', \'js/main.js\'))\nresponse.write(\'"></script>\\n            <script>\\n                $(document).ready(function() {    \\n                    $(\\\'#button_hero\\\').click(function() {\\n                       $(\\\'html, body\\\').animate({\\n                          scrollTop: $("#about").offset().top\\n                          }, 2000);\\n                        });\\n                    });\\n            </script>\\n        \\n        \', escape=False)\nif response.google_analytics_id:\n    response.write(\'\\n        <!-- Analytics ==================================== -->\\n        <script src="\', escape=False)\n    response.write(URL(\'static\',\'js/analytics.min.js\'))\n    response.write(\'"></script>\\n        <script type="text/javascript">\\n          analytics.initialize({\\n          \\\'Google Analytics\\\':{trackingId:\\\'\', escape=False)\n    response.write(response.google_analytics_id)\n    response.write("\'}\\n          });\\n        </script>\\n        ", escape=False)\n    pass\nresponse.write(\'\\n        <!-- Share ============================y============ -->\\n        <script src="\', escape=False)\nresponse.write(URL(\'static\',\'js/share.js\',vars=dict(static=URL(\'static\',\'images\'))))\nresponse.write(\'"></script>\\n\\t</body>\\n</html>\\n\', escape=False)'
p7
sS'snapshot'
p8
(dp9
sS'traceback'
p10
S'Traceback (most recent call last):\n  File "/home/julia/web2py/gluon/restricted.py", line 227, in restricted\n    exec ccode in environment\n  File "/home/julia/web2py/applications/courses_app/views/default/courses.html", line 68, in <module>\n  File "/home/julia/web2py/gluon/packages/dal/pydal/objects.py", line 2289, in __getitem__\n    row = self.records[i]\nIndexError: list index out of range\n'
p11
s.