(dp1
S'output'
p2
S"<type 'exceptions.TypeError'> %d format: a number is required, not str"
p3
sS'layer'
p4
S'/home/julia/web2py/applications/courses_app/views/default/course.html'
p5
sS'code'
p6
S'response.write(\'<!DOCTYPE HTML>\\n<!--\\n\\tTelephasic by HTML5 UP\\n\\thtml5up.net | @n33co\\n\\tFree for personal and commercial use under the CCA 3.0 license (html5up.net/license)\\n-->\\n<html>\\n\\t<head>\\n\\t\\t<title>Julia Rizza</title>\\n\\t\\t<meta charset="utf-8" />\\n\\t\\t<meta name="viewport" content="width=device-width, initial-scale=1" />\\n\\t\\t<!--[if lte IE 8]><script src="\', escape=False)\nresponse.write(URL(\'static\', \'css/ie/html5shiv.js\'))\nresponse.write(\'"></script><![endif]-->\\n\\t\\t<link rel="stylesheet" href="\', escape=False)\nresponse.write(URL(\'static\', \'css/main.css\'))\nresponse.write(\'" />\\n\\t\\t<!--[if lte IE 8]><link rel="stylesheet" href="\', escape=False)\nresponse.write(URL(\'static\', \'css/ie/v8.css\'))\nresponse.write(\'" /><![endif]-->\\n\\t\\t<!--[if lte IE 9]><link rel="stylesheet" href="\', escape=False)\nresponse.write(URL(\'static\', \'css/ie/v9.css\'))\nresponse.write(\'" /><![endif]-->\\n\\t\\t<!--[if lte IE 8]><script src="\', escape=False)\nresponse.write(URL(\'static\', \'css/ie/respond.min.js\'))\nresponse.write(\'"></script><![endif]-->\\n        \', escape=False)\nresponse.write(\'<script type="text/javascript"><!--\\n    // These variables are used by the web2py_ajax_init function in web2py_ajax.js (which is loaded below).\\n    var w2p_ajax_confirm_message = "\', escape=False)\nresponse.write(T(\'Are you sure you want to delete this object?\'))\nresponse.write(\'";\\n    var w2p_ajax_disable_with_message = "\', escape=False)\nresponse.write(T(\'Working...\'))\nresponse.write(\'";\\n    var w2p_ajax_date_format = "\', escape=False)\nresponse.write(T(\'%Y-%m-%d\'))\nresponse.write(\'";\\n    var w2p_ajax_datetime_format = "\', escape=False)\nresponse.write(T(\'%Y-%m-%d %H:%M:%S\'))\nresponse.write(\'";\\n    var ajax_error_500 = \\\'\', escape=False)\nresponse.write(T.M(\'An error occured, please [[reload %s]] the page\') % URL(args=request.args, vars=request.get_vars))\nresponse.write("\'\\n    //--></script>\\n", escape=False)\nresponse.files.insert(0,URL(\'static\',\'js/jquery.js\'))\nresponse.files.insert(1,URL(\'static\',\'css/calendar.css\'))\nresponse.files.insert(2,URL(\'static\',\'js/calendar.js\'))\nresponse.files.insert(3,URL(\'static\',\'js/web2py.js\'))\nresponse.include_meta()\nresponse.include_files()\nresponse.write(\'\\n\', escape=False)\nresponse.write(\' <!-- this includes jquery.js, calendar.js/.css and web2py.js -->\\n        \', escape=False)\nresponse.write(\'\\n\\t</head>\\n\\t<body class="\', escape=False)\nresponse.write(\'right-sidebar\', escape=False)\nresponse.write(\'">\\n\\t\\t<div id="page-wrapper">\\n        <!--[if lt IE 8]><p class="browserupgrade">You are using an <strong>outdated</strong> browser. Please <a href="http://browsehappy.com/">upgrade your browser</a> to improve your experience.</p><![endif]-->\\n        <div class="flash alert alert-dismissable">\', escape=False)\nresponse.write(response.flash or \'\')\nresponse.write(\'</div>\\n\\n\\t\\t\\t<!-- Header -->\\n\\t\\t\\t\\t<div id="header-wrapper">\\n\\t\\t\\t\\t\\t<div id="header" class="container">\\n\\n\\t\\t\\t\\t\\t\\t<!-- Logo -->\\n\\t\\t\\t\\t\\t\\t\\t<h1 id="logo"><a href="\', escape=False)\nresponse.write(URL(a=\'juliarizza\', f=\'index\'))\nresponse.write(\'">Julia Rizza</a></h1>\\n\\n\\t\\t\\t\\t\\t\\t<!-- Nav -->\\n\\t\\t\\t\\t\\t\\t\\t<nav id="nav">\\n\\t\\t\\t\\t\\t\\t\\t\\t<ul>\\n\\t\\t\\t\\t\\t\\t\\t\\t\\t<li><a href="\', escape=False)\nresponse.write(URL(\'courses\'))\nresponse.write(\'">\', escape=False)\nresponse.write(T(\'Courses\'))\nresponse.write(\'</a></li>\\n                                    <li><a href="https://juliarizza.wordpress.com" target="_blank">\', escape=False)\nresponse.write((\'Blog\'))\nresponse.write(\'</a></li>\\n\\t\\t\\t\\t\\t\\t\\t\\t\\t<li class="break"><a href="\', escape=False)\nresponse.write(URL(a=\'juliarizza\', f=\'index\'))\nresponse.write(\'#about">\', escape=False)\nresponse.write(T(\'My Work\'))\nresponse.write(\'</a></li>\\n\\t\\t\\t\\t\\t\\t\\t\\t\\t<li><a href="\', escape=False)\nresponse.write(URL(a=\'juliarizza\', f=\'index\'))\nresponse.write(\'#footer">\', escape=False)\nresponse.write(T(\'Contact\'))\nresponse.write(\'</a></li>\\n\\t\\t\\t\\t\\t\\t\\t\\t</ul>\\n\\t\\t\\t\\t\\t\\t\\t</nav>\\n\\n\\t\\t\\t\\t\\t</div>\\n                    \', escape=False)\nresponse.write(\'\\n                    \', escape=False)\nresponse.write(\'\\n            </div>\\n                    \\n                    \', escape=False)\nresponse.write(\'\\n\', escape=False)\nresponse.write(\'\\n            <!-- Main -->\\n                <div class="wrapper">\\n                    <div class="container" id="main">\\n                        <div class="row 150%">\\n                            <div class="8u 12u(narrower)">\\n\\n                                <!-- Content -->\\n                                    <article id="content">\\n                                        <a href="#" class="image featured"><img src="\', escape=False)\nresponse.write(URL(\'download\', args=course.image))\nresponse.write(\'" alt="\', escape=False)\nresponse.write(course.title)\nresponse.write(\'" /></a>\\n                                        <header>\\n                                            <h2>\', escape=False)\nresponse.write(course.title)\nresponse.write(\'</h2>\\n                                        </header>\\n                                        <p>\\n                                            \', escape=False)\nresponse.write(course.short_description)\nresponse.write(\'\\n                                        </p>\\n                                    </article>\\n                                    <article>\\n                                        \', escape=False)\nresponse.write(course.description)\nresponse.write(\'\\n                                    </article>\\n\\n                            </div>\\n                            <div class="4u 12u(narrower)">\\n\\n                                <!-- Sidebar -->\\n                                    <section id="sidebar">\\n                                        <section>\\n                                            <header>\\n                                                <h3>\', escape=False)\nresponse.write(T(\'General Info\'))\nresponse.write(\'</h3>\\n                                            </header>\\n                                            <p>\\n                                                <ul style="list-style: circle inside;">\\n                                                    <li>\', escape=False)\nresponse.write(T(\'Certificate\'))\nresponse.write(\'</li>\\n                                                    <li>\', escape=False)\nresponse.write(T(\'Duration\'))\nresponse.write(\': \', escape=False)\nresponse.write(course.total_hours)\nresponse.write(\' \', escape=False)\nresponse.write(T(\'hours\'))\nresponse.write(\'</li>\\n                                                    <li>\', escape=False)\nresponse.write(T(\'Vacancies\'))\nresponse.write(\': \', escape=False)\nresponse.write(course.max_students)\nresponse.write(\' \', escape=False)\nresponse.write(T(\'students\'))\nresponse.write(\'</li>\\n                                                    <li><b>\', escape=False)\nresponse.write(T(\'Price\'))\nresponse.write(\':</b> R$\', escape=False)\nresponse.write(\'%.2f\' % course.price)\nresponse.write(\'</li>\\n                                                </ul>\\n                                            </p>\\n                                            \', escape=False)\nif open_classes:\n    response.write(\'\\n                                            <h3>\', escape=False)\n    response.write(T(\'Open classes\'))\n    response.write(\'</h3>\\n                                            \', escape=False)\n    for oc in open_classes:\n        response.write(\'\\n                                            <div class="button" style="min-width: 250px; text-align: center;">\\n                                                \', escape=False)\n        response.write(T(\'Starting on\'))\n        response.write(\'\\n                                                \', escape=False)\n        response.write(T("%s %dth") % (oc.start_date.day, oc.start_date.strftime("%B")))\n        response.write(\'\\n                                                <br>\\n                                                \', escape=False)\n        response.write(T(\'Enroll\'))\n        response.write(\'\\n                                            </div>\\n                                            <br><br>\\n                                            \', escape=False)\n        pass\n    response.write(\'\\n                                            \', escape=False)\nelse:\n    response.write(\'\\n                                            <p>\', escape=False)\n    response.write(T(\'Interested? Submit your email below to be notified for the next open class.\'))\n    response.write(\'</p>\\n                                            \', escape=False)\n    response.write(interest_form.custom.begin)\n    response.write(\'\\n                                                \', escape=False)\n    interest_form.elements(\'#interests_email\')[0][\'_placeholder\']=T(\'Your email\')\n    response.write(\'\\n                                                \', escape=False)\n    response.write(interest_form.custom.widget.email)\n    response.write(\'\\n                                                <br>\\n                                                \', escape=False)\n    response.write(interest_form.custom.submit)\n    response.write(\'\\n                                            \', escape=False)\n    response.write(interest_form.custom.end)\n    response.write(\'\\n                                            \', escape=False)\n    pass\nresponse.write(\'\\n                                        </section>\\n                                    </section>\\n\\n                            </div>\\n                        </div>\\n                    </div>\\n                </div>\\n\', escape=False)\nresponse.write(\'\\n                    \\n            \\n                    \', escape=False)\nresponse.write(\'\\n                    <!-- Footer -->\\n                    <div id="footer-wrapper">\\n                        <center>\\n                            <ul class="menu">\\n                                <li>&copy; Untitled. All rights reserved.</li><li>Design: <a href="http://html5up.net">HTML5 UP</a></li>\\n                            </ul>\\n                        </center>\\n                    </div>\\n                    \', escape=False)\nresponse.write(\'\\n        </div>\\n\\n\\t\\t<!-- Scripts -->\\n\\n\\t\\t\\t<script src="\', escape=False)\nresponse.write(URL(\'static\', \'js/jquery.min.js\'))\nresponse.write(\'"></script>\\n\\t\\t\\t<script src="\', escape=False)\nresponse.write(URL(\'static\', \'js/jquery.dropotron.min.js\'))\nresponse.write(\'"></script>\\n\\t\\t\\t<script src="\', escape=False)\nresponse.write(URL(\'static\', \'js/skel.min.js\'))\nresponse.write(\'"></script>\\n\\t\\t\\t<script src="\', escape=False)\nresponse.write(URL(\'static\', \'js/util.js\'))\nresponse.write(\'"></script>\\n\\t\\t\\t<script src="\', escape=False)\nresponse.write(URL(\'static\', \'js/main.js\'))\nresponse.write(\'"></script>\\n            <script>\\n                $(document).ready(function() {    \\n                    $(\\\'#button_hero\\\').click(function() {\\n                       $(\\\'html, body\\\').animate({\\n                          scrollTop: $("#about").offset().top\\n                          }, 2000);\\n                        });\\n                    });\\n            </script>\\n        \\n        \', escape=False)\nif response.google_analytics_id:\n    response.write(\'\\n        <!-- Analytics ==================================== -->\\n        <script src="\', escape=False)\n    response.write(URL(\'static\',\'js/analytics.min.js\'))\n    response.write(\'"></script>\\n        <script type="text/javascript">\\n          analytics.initialize({\\n          \\\'Google Analytics\\\':{trackingId:\\\'\', escape=False)\n    response.write(response.google_analytics_id)\n    response.write("\'}\\n          });\\n        </script>\\n        ", escape=False)\n    pass\nresponse.write(\'\\n        <!-- Share ============================y============ -->\\n        <script src="\', escape=False)\nresponse.write(URL(\'static\',\'js/share.js\',vars=dict(static=URL(\'static\',\'images\'))))\nresponse.write(\'"></script>\\n\\t</body>\\n</html>\\n\', escape=False)'
p7
sS'snapshot'
p8
(dp9
sS'traceback'
p10
S'Traceback (most recent call last):\n  File "/home/julia/web2py/gluon/restricted.py", line 227, in restricted\n    exec ccode in environment\n  File "/home/julia/web2py/applications/courses_app/views/default/course.html", line 94, in <module>\n  File "/home/julia/web2py/gluon/globals.py", line 406, in write\n    self.body.write(xmlescape(data))\n  File "/home/julia/web2py/gluon/html.py", line 130, in xmlescape\n    return data.xml()\n  File "/home/julia/web2py/gluon/languages.py", line 423, in xml\n    return str(self) if self.M else escape(str(self))\n  File "/home/julia/web2py/gluon/languages.py", line 383, in __str__\n    self.T.translate(self.m, self.s))\n  File "/home/julia/web2py/gluon/languages.py", line 943, in translate\n    message = self.params_substitution(message, symbols)\n  File "/home/julia/web2py/gluon/languages.py", line 920, in params_substitution\n    message = message % symbols\nTypeError: %d format: a number is required, not str\n'
p11
s.