(dp1
S'output'
p2
S"<type 'exceptions.AttributeError'> 'Row' object has no attribute 'avatar'"
p3
sS'layer'
p4
S'/home/julia/web2py/applications/courses_app/views/default/my_courses.html'
p5
sS'code'
p6
S'response.write(\'<!DOCTYPE html>\\n<html lang="en">\\n  <head>\\n    <meta charset="utf-8">\\n    <meta name="viewport" content="width=device-width, initial-scale=1.0">\\n\\n    <title>\', escape=False)\nresponse.write(T(\'User Area - Courses\'))\nresponse.write(\'</title>\\n\\n    <!-- Bootstrap core CSS -->\\n    <link href="\', escape=False)\nresponse.write(URL(\'static\', \'css/bootstrap.min.css\'))\nresponse.write(\'" rel="stylesheet">\\n    <!--external css-->\\n    <link href="\', escape=False)\nresponse.write(URL(\'static\', \'css/font-awesome.css\'))\nresponse.write(\'" rel="stylesheet" />\\n    <link rel="stylesheet" type="text/css" href="\', escape=False)\nresponse.write(URL(\'static\', \'css/zabuto_calendar.css\'))\nresponse.write(\'">\\n    <link rel="stylesheet" type="text/css" href="\', escape=False)\nresponse.write(URL(\'static\', \'js/gritter/css/jquery.gritter.css\'))\nresponse.write(\'" />\\n    <link rel="stylesheet" type="text/css" href="\', escape=False)\nresponse.write(URL(\'static\', \'lineicons/style.css\'))\nresponse.write(\'">\\n    \\n    <!-- Custom styles for this template -->\\n    <link href="\', escape=False)\nresponse.write(URL(\'static\', \'css/style.css\'))\nresponse.write(\'" rel="stylesheet">\\n    <link href="\', escape=False)\nresponse.write(URL(\'static\', \'css/style-responsive.css\'))\nresponse.write(\'" rel="stylesheet">\\n      \\n    \', escape=False)\nresponse.write(\'\\n    \', escape=False)\nresponse.write(\'\\n\\n    <script src="\', escape=False)\nresponse.write(URL(\'static\', \'js/chart-master/Chart.js\'))\nresponse.write(\'"></script>\\n    \\n    <!-- HTML5 shim and Respond.js IE8 support of HTML5 elements and media queries -->\\n    <!--[if lt IE 9]>\\n      <script src="https://oss.maxcdn.com/libs/html5shiv/3.7.0/html5shiv.js"></script>\\n      <script src="https://oss.maxcdn.com/libs/respond.js/1.4.2/respond.min.js"></script>\\n    <![endif]-->\\n  </head>\\n\\n  <body>\\n\\n  <section id="container" >\\n      <!--header start-->\\n      <header class="header black-bg">\\n            <!--logo start-->\\n            <a href="" class="logo"><b>\', escape=False)\nresponse.write(T(\'DASHBOARD\'))\nresponse.write(\'</b></a>\\n            <!--logo end-->\\n            <div class="top-menu">\\n            \\t<ul class="nav pull-right top-menu">\\n                    <li><a class="logout" href="login.html">\', escape=False)\nresponse.write(T(\'Logout\'))\nresponse.write(\'</a></li>\\n            \\t</ul>\\n            </div>\\n        </header>\\n      <!--header end-->\\n      \\n      <!-- **********************************************************************************************************************************************************\\n      MAIN SIDEBAR MENU\\n      *********************************************************************************************************************************************************** -->\\n      <!--sidebar start-->\\n      <aside>\\n          <div id="sidebar"  class="nav-collapse ">\\n              <!-- sidebar menu start-->\\n              <ul class="sidebar-menu" id="nav-accordion">\\n              \\n              \\t  <p class="centered"><a href="profile.html"><img src="\', escape=False)\nresponse.write(URL(\'download\', args=auth.user.avatar))\nresponse.write(\'" class="img-circle" width="60"></a></p>\\n              \\t  <h5 class="centered">\', escape=False)\nresponse.write(auth.user.first_name)\nresponse.write(\' \', escape=False)\nresponse.write(auth.user.last_name)\nresponse.write(\'</h5>\\n              \\t  \\t\\n                  <li class="mt">\\n                      <a class="active" href="index.html">\\n                          <i class="fa fa-dashboard"></i>\\n                          <span>Dashboard</span>\\n                      </a>\\n                  </li>\\n\\n                  <li class="sub-menu">\\n                      <a href="javascript:;" >\\n                          <i class="fa fa-desktop"></i>\\n                          <span>UI Elements</span>\\n                      </a>\\n                      <ul class="sub">\\n                          <li><a  href="general.html">General</a></li>\\n                          <li><a  href="buttons.html">Buttons</a></li>\\n                          <li><a  href="panels.html">Panels</a></li>\\n                      </ul>\\n                  </li>\\n\\n                  <li class="sub-menu">\\n                      <a href="javascript:;" >\\n                          <i class="fa fa-cogs"></i>\\n                          <span>Components</span>\\n                      </a>\\n                      <ul class="sub">\\n                          <li><a  href="calendar.html">Calendar</a></li>\\n                          <li><a  href="gallery.html">Gallery</a></li>\\n                          <li><a  href="todo_list.html">Todo List</a></li>\\n                      </ul>\\n                  </li>\\n                  <li class="sub-menu">\\n                      <a href="javascript:;" >\\n                          <i class="fa fa-book"></i>\\n                          <span>Extra Pages</span>\\n                      </a>\\n                      <ul class="sub">\\n                          <li><a  href="blank.html">Blank Page</a></li>\\n                          <li><a  href="login.html">Login</a></li>\\n                          <li><a  href="lock_screen.html">Lock Screen</a></li>\\n                      </ul>\\n                  </li>\\n                  <li class="sub-menu">\\n                      <a href="javascript:;" >\\n                          <i class="fa fa-tasks"></i>\\n                          <span>Forms</span>\\n                      </a>\\n                      <ul class="sub">\\n                          <li><a  href="form_component.html">Form Components</a></li>\\n                      </ul>\\n                  </li>\\n                  <li class="sub-menu">\\n                      <a href="javascript:;" >\\n                          <i class="fa fa-th"></i>\\n                          <span>Data Tables</span>\\n                      </a>\\n                      <ul class="sub">\\n                          <li><a  href="basic_table.html">Basic Table</a></li>\\n                          <li><a  href="responsive_table.html">Responsive Table</a></li>\\n                      </ul>\\n                  </li>\\n                  <li class="sub-menu">\\n                      <a href="javascript:;" >\\n                          <i class=" fa fa-bar-chart-o"></i>\\n                          <span>Charts</span>\\n                      </a>\\n                      <ul class="sub">\\n                          <li><a  href="morris.html">Morris</a></li>\\n                          <li><a  href="chartjs.html">Chartjs</a></li>\\n                      </ul>\\n                  </li>\\n\\n              </ul>\\n              <!-- sidebar menu end-->\\n          </div>\\n      </aside>\\n      <!--sidebar end-->\\n      \\n      <!-- **********************************************************************************************************************************************************\\n      MAIN CONTENT\\n      *********************************************************************************************************************************************************** -->\\n      <!--main content start-->\\n      <section id="main-content">\\n          <section class="wrapper">\\n\\n              <div class="row">\\n                  <div class="col-lg-9 main-chart">\\n                  \\n                  \\t<div class="row mtbox">\\n                  \\t\\t<div class="col-md-2 col-sm-2 col-md-offset-1 box0">\\n                  \\t\\t\\t<div class="box1">\\n\\t\\t\\t\\t\\t  \\t\\t\\t<span class="li_heart"></span>\\n\\t\\t\\t\\t\\t  \\t\\t\\t<h3>933</h3>\\n                  \\t\\t\\t</div>\\n\\t\\t\\t\\t\\t  \\t\\t\\t<p>933 People liked your page the last 24hs. Whoohoo!</p>\\n                  \\t\\t</div>\\n                  \\t\\t<div class="col-md-2 col-sm-2 box0">\\n                  \\t\\t\\t<div class="box1">\\n\\t\\t\\t\\t\\t  \\t\\t\\t<span class="li_cloud"></span>\\n\\t\\t\\t\\t\\t  \\t\\t\\t<h3>+48</h3>\\n                  \\t\\t\\t</div>\\n\\t\\t\\t\\t\\t  \\t\\t\\t<p>48 New files were added in your cloud storage.</p>\\n                  \\t\\t</div>\\n                  \\t\\t<div class="col-md-2 col-sm-2 box0">\\n                  \\t\\t\\t<div class="box1">\\n\\t\\t\\t\\t\\t  \\t\\t\\t<span class="li_stack"></span>\\n\\t\\t\\t\\t\\t  \\t\\t\\t<h3>23</h3>\\n                  \\t\\t\\t</div>\\n\\t\\t\\t\\t\\t  \\t\\t\\t<p>You have 23 unread messages in your inbox.</p>\\n                  \\t\\t</div>\\n                  \\t\\t<div class="col-md-2 col-sm-2 box0">\\n                  \\t\\t\\t<div class="box1">\\n\\t\\t\\t\\t\\t  \\t\\t\\t<span class="li_news"></span>\\n\\t\\t\\t\\t\\t  \\t\\t\\t<h3>+10</h3>\\n                  \\t\\t\\t</div>\\n\\t\\t\\t\\t\\t  \\t\\t\\t<p>More than 10 news were added in your reader.</p>\\n                  \\t\\t</div>\\n                  \\t\\t<div class="col-md-2 col-sm-2 box0">\\n                  \\t\\t\\t<div class="box1">\\n\\t\\t\\t\\t\\t  \\t\\t\\t<span class="li_data"></span>\\n\\t\\t\\t\\t\\t  \\t\\t\\t<h3>OK!</h3>\\n                  \\t\\t\\t</div>\\n\\t\\t\\t\\t\\t  \\t\\t\\t<p>Your server is working perfectly. Relax & enjoy.</p>\\n                  \\t\\t</div>\\n                  \\t\\n                  \\t</div><!-- /row mt -->\\t\\n                  \\n                      \\n                      <div class="row mt">\\n                      <!-- SERVER STATUS PANELS -->\\n                      \\t<div class="col-md-4 col-sm-4 mb">\\n                      \\t\\t<div class="white-panel pn donut-chart">\\n                      \\t\\t\\t<div class="white-header">\\n\\t\\t\\t\\t\\t\\t  \\t\\t\\t<h5>SERVER LOAD</h5>\\n                      \\t\\t\\t</div>\\n\\t\\t\\t\\t\\t\\t\\t\\t<div class="row">\\n\\t\\t\\t\\t\\t\\t\\t\\t\\t<div class="col-sm-6 col-xs-6 goleft">\\n\\t\\t\\t\\t\\t\\t\\t\\t\\t\\t<p><i class="fa fa-database"></i> 70%</p>\\n\\t\\t\\t\\t\\t\\t\\t\\t\\t</div>\\n\\t                      \\t\\t</div>\\n\\t\\t\\t\\t\\t\\t\\t\\t<canvas id="serverstatus01" height="120" width="120"></canvas>\\n\\t\\t\\t\\t\\t\\t\\t\\t<script>\\n\\t\\t\\t\\t\\t\\t\\t\\t\\tvar doughnutData = [\\n\\t\\t\\t\\t\\t\\t\\t\\t\\t\\t\\t{\\n\\t\\t\\t\\t\\t\\t\\t\\t\\t\\t\\t\\tvalue: 70,\\n\\t\\t\\t\\t\\t\\t\\t\\t\\t\\t\\t\\tcolor:"#68dff0"\\n\\t\\t\\t\\t\\t\\t\\t\\t\\t\\t\\t},\\n\\t\\t\\t\\t\\t\\t\\t\\t\\t\\t\\t{\\n\\t\\t\\t\\t\\t\\t\\t\\t\\t\\t\\t\\tvalue : 30,\\n\\t\\t\\t\\t\\t\\t\\t\\t\\t\\t\\t\\tcolor : "#fdfdfd"\\n\\t\\t\\t\\t\\t\\t\\t\\t\\t\\t\\t}\\n\\t\\t\\t\\t\\t\\t\\t\\t\\t\\t];\\n\\t\\t\\t\\t\\t\\t\\t\\t\\t\\tvar myDoughnut = new Chart(document.getElementById("serverstatus01").getContext("2d")).Doughnut(doughnutData);\\n\\t\\t\\t\\t\\t\\t\\t\\t</script>\\n\\t                      \\t</div><! --/grey-panel -->\\n                      \\t</div><!-- /col-md-4-->\\n                      \\t\\n\\n                      \\t<div class="col-md-4 col-sm-4 mb">\\n                      \\t\\t<div class="white-panel pn">\\n                      \\t\\t\\t<div class="white-header">\\n\\t\\t\\t\\t\\t\\t  \\t\\t\\t<h5>TOP PRODUCT</h5>\\n                      \\t\\t\\t</div>\\n\\t\\t\\t\\t\\t\\t\\t\\t<div class="row">\\n\\t\\t\\t\\t\\t\\t\\t\\t\\t<div class="col-sm-6 col-xs-6 goleft">\\n\\t\\t\\t\\t\\t\\t\\t\\t\\t\\t<p><i class="fa fa-heart"></i> 122</p>\\n\\t\\t\\t\\t\\t\\t\\t\\t\\t</div>\\n\\t\\t\\t\\t\\t\\t\\t\\t\\t<div class="col-sm-6 col-xs-6"></div>\\n\\t                      \\t\\t</div>\\n\\t                      \\t\\t<div class="centered">\\n\\t\\t\\t\\t\\t\\t\\t\\t\\t\\t<img src="assets/img/product.png" width="120">\\n\\t                      \\t\\t</div>\\n                      \\t\\t</div>\\n                      \\t</div><!-- /col-md-4 -->\\n                      \\t\\n\\t\\t\\t\\t\\t\\t<div class="col-md-4 mb">\\n\\t\\t\\t\\t\\t\\t\\t<!-- WHITE PANEL - TOP USER -->\\n\\t\\t\\t\\t\\t\\t\\t<div class="white-panel pn">\\n\\t\\t\\t\\t\\t\\t\\t\\t<div class="white-header">\\n\\t\\t\\t\\t\\t\\t\\t\\t\\t<h5>TOP USER</h5>\\n\\t\\t\\t\\t\\t\\t\\t\\t</div>\\n\\t\\t\\t\\t\\t\\t\\t\\t<p><img src="assets/img/ui-zac.jpg" class="img-circle" width="80"></p>\\n\\t\\t\\t\\t\\t\\t\\t\\t<p><b>Zac Snider</b></p>\\n\\t\\t\\t\\t\\t\\t\\t\\t<div class="row">\\n\\t\\t\\t\\t\\t\\t\\t\\t\\t<div class="col-md-6">\\n\\t\\t\\t\\t\\t\\t\\t\\t\\t\\t<p class="small mt">MEMBER SINCE</p>\\n\\t\\t\\t\\t\\t\\t\\t\\t\\t\\t<p>2012</p>\\n\\t\\t\\t\\t\\t\\t\\t\\t\\t</div>\\n\\t\\t\\t\\t\\t\\t\\t\\t\\t<div class="col-md-6">\\n\\t\\t\\t\\t\\t\\t\\t\\t\\t\\t<p class="small mt">TOTAL SPEND</p>\\n\\t\\t\\t\\t\\t\\t\\t\\t\\t\\t<p>$ 47,60</p>\\n\\t\\t\\t\\t\\t\\t\\t\\t\\t</div>\\n\\t\\t\\t\\t\\t\\t\\t\\t</div>\\n\\t\\t\\t\\t\\t\\t\\t</div>\\n\\t\\t\\t\\t\\t\\t</div><!-- /col-md-4 -->\\n                      \\t\\n\\n                    </div><!-- /row -->\\n                    \\n                    \\t\\t\\t\\t\\n\\t\\t\\t\\t\\t<div class="row">\\n\\t\\t\\t\\t\\t\\t<!-- TWITTER PANEL -->\\n\\t\\t\\t\\t\\t\\t<div class="col-md-4 mb">\\n                      \\t\\t<div class="darkblue-panel pn">\\n                      \\t\\t\\t<div class="darkblue-header">\\n\\t\\t\\t\\t\\t\\t  \\t\\t\\t<h5>DROPBOX STATICS</h5>\\n                      \\t\\t\\t</div>\\n\\t\\t\\t\\t\\t\\t\\t\\t<canvas id="serverstatus02" height="120" width="120"></canvas>\\n\\t\\t\\t\\t\\t\\t\\t\\t<script>\\n\\t\\t\\t\\t\\t\\t\\t\\t\\tvar doughnutData = [\\n\\t\\t\\t\\t\\t\\t\\t\\t\\t\\t\\t{\\n\\t\\t\\t\\t\\t\\t\\t\\t\\t\\t\\t\\tvalue: 60,\\n\\t\\t\\t\\t\\t\\t\\t\\t\\t\\t\\t\\tcolor:"#68dff0"\\n\\t\\t\\t\\t\\t\\t\\t\\t\\t\\t\\t},\\n\\t\\t\\t\\t\\t\\t\\t\\t\\t\\t\\t{\\n\\t\\t\\t\\t\\t\\t\\t\\t\\t\\t\\t\\tvalue : 40,\\n\\t\\t\\t\\t\\t\\t\\t\\t\\t\\t\\t\\tcolor : "#444c57"\\n\\t\\t\\t\\t\\t\\t\\t\\t\\t\\t\\t}\\n\\t\\t\\t\\t\\t\\t\\t\\t\\t\\t];\\n\\t\\t\\t\\t\\t\\t\\t\\t\\t\\tvar myDoughnut = new Chart(document.getElementById("serverstatus02").getContext("2d")).Doughnut(doughnutData);\\n\\t\\t\\t\\t\\t\\t\\t\\t</script>\\n\\t\\t\\t\\t\\t\\t\\t\\t<p>April 17, 2014</p>\\n\\t\\t\\t\\t\\t\\t\\t\\t<footer>\\n\\t\\t\\t\\t\\t\\t\\t\\t\\t<div class="pull-left">\\n\\t\\t\\t\\t\\t\\t\\t\\t\\t\\t<h5><i class="fa fa-hdd-o"></i> 17 GB</h5>\\n\\t\\t\\t\\t\\t\\t\\t\\t\\t</div>\\n\\t\\t\\t\\t\\t\\t\\t\\t\\t<div class="pull-right">\\n\\t\\t\\t\\t\\t\\t\\t\\t\\t\\t<h5>60% Used</h5>\\n\\t\\t\\t\\t\\t\\t\\t\\t\\t</div>\\n\\t\\t\\t\\t\\t\\t\\t\\t</footer>\\n                      \\t\\t</div><! -- /darkblue panel -->\\n\\t\\t\\t\\t\\t\\t</div><!-- /col-md-4 -->\\n\\t\\t\\t\\t\\t\\t\\n\\t\\t\\t\\t\\t\\t\\n\\t\\t\\t\\t\\t\\t<div class="col-md-4 mb">\\n\\t\\t\\t\\t\\t\\t\\t<!-- INSTAGRAM PANEL -->\\n\\t\\t\\t\\t\\t\\t\\t<div class="instagram-panel pn">\\n\\t\\t\\t\\t\\t\\t\\t\\t<i class="fa fa-instagram fa-4x"></i>\\n\\t\\t\\t\\t\\t\\t\\t\\t<p>@THISISYOU<br/>\\n\\t\\t\\t\\t\\t\\t\\t\\t\\t5 min. ago\\n\\t\\t\\t\\t\\t\\t\\t\\t</p>\\n\\t\\t\\t\\t\\t\\t\\t\\t<p><i class="fa fa-comment"></i> 18 | <i class="fa fa-heart"></i> 49</p>\\n\\t\\t\\t\\t\\t\\t\\t</div>\\n\\t\\t\\t\\t\\t\\t</div><!-- /col-md-4 -->\\n\\t\\t\\t\\t\\t\\t\\n\\t\\t\\t\\t\\t\\t<div class="col-md-4 col-sm-4 mb">\\n\\t\\t\\t\\t\\t\\t\\t<!-- REVENUE PANEL -->\\n\\t\\t\\t\\t\\t\\t\\t<div class="darkblue-panel pn">\\n\\t\\t\\t\\t\\t\\t\\t\\t<div class="darkblue-header">\\n\\t\\t\\t\\t\\t\\t\\t\\t\\t<h5>REVENUE</h5>\\n\\t\\t\\t\\t\\t\\t\\t\\t</div>\\n\\t\\t\\t\\t\\t\\t\\t\\t<div class="chart mt">\\n\\t\\t\\t\\t\\t\\t\\t\\t\\t<div class="sparkline" data-type="line" data-resize="true" data-height="75" data-width="90%" data-line-width="1" data-line-color="#fff" data-spot-color="#fff" data-fill-color="" data-highlight-line-color="#fff" data-spot-radius="4" data-data="[200,135,667,333,526,996,564,123,890,464,655]"></div>\\n\\t\\t\\t\\t\\t\\t\\t\\t</div>\\n\\t\\t\\t\\t\\t\\t\\t\\t<p class="mt"><b>$ 17,980</b><br/>Month Income</p>\\n\\t\\t\\t\\t\\t\\t\\t</div>\\n\\t\\t\\t\\t\\t\\t</div><!-- /col-md-4 -->\\n\\t\\t\\t\\t\\t\\t\\n\\t\\t\\t\\t\\t</div><!-- /row -->\\n\\t\\t\\t\\t\\t\\n\\t\\t\\t\\t\\t<div class="row mt">\\n                      <!--CUSTOM CHART START -->\\n                      <div class="border-head">\\n                          <h3>VISITS</h3>\\n                      </div>\\n                      <div class="custom-bar-chart">\\n                          <ul class="y-axis">\\n                              <li><span>10.000</span></li>\\n                              <li><span>8.000</span></li>\\n                              <li><span>6.000</span></li>\\n                              <li><span>4.000</span></li>\\n                              <li><span>2.000</span></li>\\n                              <li><span>0</span></li>\\n                          </ul>\\n                          <div class="bar">\\n                              <div class="title">JAN</div>\\n                              <div class="value tooltips" data-original-title="8.500" data-toggle="tooltip" data-placement="top">85%</div>\\n                          </div>\\n                          <div class="bar ">\\n                              <div class="title">FEB</div>\\n                              <div class="value tooltips" data-original-title="5.000" data-toggle="tooltip" data-placement="top">50%</div>\\n                          </div>\\n                          <div class="bar ">\\n                              <div class="title">MAR</div>\\n                              <div class="value tooltips" data-original-title="6.000" data-toggle="tooltip" data-placement="top">60%</div>\\n                          </div>\\n                          <div class="bar ">\\n                              <div class="title">APR</div>\\n                              <div class="value tooltips" data-original-title="4.500" data-toggle="tooltip" data-placement="top">45%</div>\\n                          </div>\\n                          <div class="bar">\\n                              <div class="title">MAY</div>\\n                              <div class="value tooltips" data-original-title="3.200" data-toggle="tooltip" data-placement="top">32%</div>\\n                          </div>\\n                          <div class="bar ">\\n                              <div class="title">JUN</div>\\n                              <div class="value tooltips" data-original-title="6.200" data-toggle="tooltip" data-placement="top">62%</div>\\n                          </div>\\n                          <div class="bar">\\n                              <div class="title">JUL</div>\\n                              <div class="value tooltips" data-original-title="7.500" data-toggle="tooltip" data-placement="top">75%</div>\\n                          </div>\\n                      </div>\\n                      <!--custom chart end-->\\n\\t\\t\\t\\t\\t</div><!-- /row -->\\t\\n\\t\\t\\t\\t\\t\\n                  </div><!-- /col-lg-9 END SECTION MIDDLE -->\\n                  \\n                  \\n      <!-- **********************************************************************************************************************************************************\\n      RIGHT SIDEBAR CONTENT\\n      *********************************************************************************************************************************************************** -->                  \\n                  \\n                  <div class="col-lg-3 ds">\\n                    <!--COMPLETED ACTIONS DONUTS CHART-->\\n\\t\\t\\t\\t\\t\\t<h3>NOTIFICATIONS</h3>\\n                                        \\n                      <!-- First Action -->\\n                      <div class="desc">\\n                      \\t<div class="thumb">\\n                      \\t\\t<span class="badge bg-theme"><i class="fa fa-clock-o"></i></span>\\n                      \\t</div>\\n                      \\t<div class="details">\\n                      \\t\\t<p><muted>2 Minutes Ago</muted><br/>\\n                      \\t\\t   <a href="#">James Brown</a> subscribed to your newsletter.<br/>\\n                      \\t\\t</p>\\n                      \\t</div>\\n                      </div>\\n                      <!-- Second Action -->\\n                      <div class="desc">\\n                      \\t<div class="thumb">\\n                      \\t\\t<span class="badge bg-theme"><i class="fa fa-clock-o"></i></span>\\n                      \\t</div>\\n                      \\t<div class="details">\\n                      \\t\\t<p><muted>3 Hours Ago</muted><br/>\\n                      \\t\\t   <a href="#">Diana Kennedy</a> purchased a year subscription.<br/>\\n                      \\t\\t</p>\\n                      \\t</div>\\n                      </div>\\n                      <!-- Third Action -->\\n                      <div class="desc">\\n                      \\t<div class="thumb">\\n                      \\t\\t<span class="badge bg-theme"><i class="fa fa-clock-o"></i></span>\\n                      \\t</div>\\n                      \\t<div class="details">\\n                      \\t\\t<p><muted>7 Hours Ago</muted><br/>\\n                      \\t\\t   <a href="#">Brandon Page</a> purchased a year subscription.<br/>\\n                      \\t\\t</p>\\n                      \\t</div>\\n                      </div>\\n                      <!-- Fourth Action -->\\n                      <div class="desc">\\n                      \\t<div class="thumb">\\n                      \\t\\t<span class="badge bg-theme"><i class="fa fa-clock-o"></i></span>\\n                      \\t</div>\\n                      \\t<div class="details">\\n                      \\t\\t<p><muted>11 Hours Ago</muted><br/>\\n                      \\t\\t   <a href="#">Mark Twain</a> commented your post.<br/>\\n                      \\t\\t</p>\\n                      \\t</div>\\n                      </div>\\n                      <!-- Fifth Action -->\\n                      <div class="desc">\\n                      \\t<div class="thumb">\\n                      \\t\\t<span class="badge bg-theme"><i class="fa fa-clock-o"></i></span>\\n                      \\t</div>\\n                      \\t<div class="details">\\n                      \\t\\t<p><muted>18 Hours Ago</muted><br/>\\n                      \\t\\t   <a href="#">Daniel Pratt</a> purchased a wallet in your store.<br/>\\n                      \\t\\t</p>\\n                      \\t</div>\\n                      </div>\\n\\n                       <!-- USERS ONLINE SECTION -->\\n\\t\\t\\t\\t\\t\\t<h3>TEAM MEMBERS</h3>\\n                      <!-- First Member -->\\n                      <div class="desc">\\n                      \\t<div class="thumb">\\n                      \\t\\t<img class="img-circle" src="assets/img/ui-divya.jpg" width="35px" height="35px" align="">\\n                      \\t</div>\\n                      \\t<div class="details">\\n                      \\t\\t<p><a href="#">DIVYA MANIAN</a><br/>\\n                      \\t\\t   <muted>Available</muted>\\n                      \\t\\t</p>\\n                      \\t</div>\\n                      </div>\\n                      <!-- Second Member -->\\n                      <div class="desc">\\n                      \\t<div class="thumb">\\n                      \\t\\t<img class="img-circle" src="assets/img/ui-sherman.jpg" width="35px" height="35px" align="">\\n                      \\t</div>\\n                      \\t<div class="details">\\n                      \\t\\t<p><a href="#">DJ SHERMAN</a><br/>\\n                      \\t\\t   <muted>I am Busy</muted>\\n                      \\t\\t</p>\\n                      \\t</div>\\n                      </div>\\n                      <!-- Third Member -->\\n                      <div class="desc">\\n                      \\t<div class="thumb">\\n                      \\t\\t<img class="img-circle" src="assets/img/ui-danro.jpg" width="35px" height="35px" align="">\\n                      \\t</div>\\n                      \\t<div class="details">\\n                      \\t\\t<p><a href="#">DAN ROGERS</a><br/>\\n                      \\t\\t   <muted>Available</muted>\\n                      \\t\\t</p>\\n                      \\t</div>\\n                      </div>\\n                      <!-- Fourth Member -->\\n                      <div class="desc">\\n                      \\t<div class="thumb">\\n                      \\t\\t<img class="img-circle" src="assets/img/ui-zac.jpg" width="35px" height="35px" align="">\\n                      \\t</div>\\n                      \\t<div class="details">\\n                      \\t\\t<p><a href="#">Zac Sniders</a><br/>\\n                      \\t\\t   <muted>Available</muted>\\n                      \\t\\t</p>\\n                      \\t</div>\\n                      </div>\\n                      <!-- Fifth Member -->\\n                      <div class="desc">\\n                      \\t<div class="thumb">\\n                      \\t\\t<img class="img-circle" src="assets/img/ui-sam.jpg" width="35px" height="35px" align="">\\n                      \\t</div>\\n                      \\t<div class="details">\\n                      \\t\\t<p><a href="#">Marcel Newman</a><br/>\\n                      \\t\\t   <muted>Available</muted>\\n                      \\t\\t</p>\\n                      \\t</div>\\n                      </div>\\n\\n                        <!-- CALENDAR-->\\n                        <div id="calendar" class="mb">\\n                            <div class="panel green-panel no-margin">\\n                                <div class="panel-body">\\n                                    <div id="date-popover" class="popover top" style="cursor: pointer; disadding: block; margin-left: 33%; margin-top: -50px; width: 175px;">\\n                                        <div class="arrow"></div>\\n                                        <h3 class="popover-title" style="disadding: none;"></h3>\\n                                        <div id="date-popover-content" class="popover-content"></div>\\n                                    </div>\\n                                    <div id="my-calendar"></div>\\n                                </div>\\n                            </div>\\n                        </div><!-- / calendar -->\\n                      \\n                  </div><!-- /col-lg-3 -->\\n              </div><! --/row -->\\n          </section>\\n      </section>\\n\\n      <!--main content end-->\\n      <!--footer start-->\\n      <footer class="site-footer">\\n          <div class="text-center">\\n              2014 - Alvarez.is\\n              <a href="index.html#" class="go-top">\\n                  <i class="fa fa-angle-up"></i>\\n              </a>\\n          </div>\\n      </footer>\\n      <!--footer end-->\\n  </section>\\n\\n    <!-- js placed at the end of the document so the pages load faster -->\\n    <script src="assets/js/jquery.js"></script>\\n    <script src="assets/js/jquery-1.8.3.min.js"></script>\\n    <script src="assets/js/bootstrap.min.js"></script>\\n    <script class="include" type="text/javascript" src="assets/js/jquery.dcjqaccordion.2.7.js"></script>\\n    <script src="assets/js/jquery.scrollTo.min.js"></script>\\n    <script src="assets/js/jquery.nicescroll.js" type="text/javascript"></script>\\n    <script src="assets/js/jquery.sparkline.js"></script>\\n\\n\\n    <!--common script for all pages-->\\n    <script src="assets/js/common-scripts.js"></script>\\n    \\n    <script type="text/javascript" src="assets/js/gritter/js/jquery.gritter.js"></script>\\n    <script type="text/javascript" src="assets/js/gritter-conf.js"></script>\\n\\n    <!--script for this page-->\\n    <script src="assets/js/sparkline-chart.js"></script>    \\n\\t<script src="assets/js/zabuto_calendar.js"></script>\\t\\n\\t\\n\\t<script type="text/javascript">\\n        $(document).ready(function () {\\n        var unique_id = $.gritter.add({\\n            // (string | mandatory) the heading of the notification\\n            title: \\\'Welcome to Dashgum!\\\',\\n            // (string | mandatory) the text inside the notification\\n            text: \\\'Hover me to enable the Close Button. You can hide the left sidebar clicking on the button next to the logo. Free version for <a href="http://blacktie.co" target="_blank" style="color:#ffd777">BlackTie.co</a>.\\\',\\n            // (string | optional) the image to display on the left\\n            image: \\\'assets/img/ui-sam.jpg\\\',\\n            // (bool | optional) if you want it to fade out on its own or just sit there\\n            sticky: true,\\n            // (int | optional) the time you want it to be alive for before fading out\\n            time: \\\'\\\',\\n            // (string | optional) the class name you want to apply to that specific message\\n            class_name: \\\'my-sticky-class\\\'\\n        });\\n\\n        return false;\\n        });\\n\\t</script>\\n\\t\\n\\t<script type="application/javascript">\\n        $(document).ready(function () {\\n            $("#date-popover").popover({html: true, trigger: "manual"});\\n            $("#date-popover").hide();\\n            $("#date-popover").click(function (e) {\\n                $(this).hide();\\n            });\\n        \\n            $("#my-calendar").zabuto_calendar({\\n                action: function () {\\n                    return myDateFunction(this.id, false);\\n                },\\n                action_nav: function () {\\n                    return myNavFunction(this.id);\\n                },\\n                ajax: {\\n                    url: "show_data.php?action=1",\\n                    modal: true\\n                },\\n                legend: [\\n                    {type: "text", label: "Special event", badge: "00"},\\n                    {type: "block", label: "Regular event", }\\n                ]\\n            });\\n        });\\n        \\n        \\n        function myNavFunction(id) {\\n            $("#date-popover").hide();\\n            var nav = $("#" + id).data("navigation");\\n            var to = $("#" + id).data("to");\\n            console.log(\\\'nav \\\' + nav + \\\' to: \\\' + to.month + \\\'/\\\' + to.year);\\n        }\\n    </script>\\n  \\n\\n  </body>\\n</html>\\n\', escape=False)'
p7
sS'snapshot'
p8
(dp9
sS'traceback'
p10
S'Traceback (most recent call last):\n  File "/home/julia/web2py/gluon/restricted.py", line 227, in restricted\n    exec ccode in environment\n  File "/home/julia/web2py/applications/courses_app/views/default/my_courses.html", line 26, in <module>\n  File "/home/julia/web2py/gluon/packages/dal/pydal/objects.py", line 82, in __getitem__\n    raise ae\nAttributeError: \'Row\' object has no attribute \'avatar\'\n'
p11
s.